target datalayout = "e-m:e-p270:32:32-p271:32:32-p272:64:64-i64:64-i128:128-f80:128-n8:16:32:64-S128"
target triple = "x86_64-pc-linux-gnu"

%"class.google::protobuf::Arena" = type { %"class.google::protobuf::internal::ArenaImpl" }
%"class.google::protobuf::internal::ArenaImpl" = type { %"struct.std::atomic.20", %"struct.std::atomic.20", %"struct.std::atomic.22", i64, ptr }
%"struct.std::atomic.20" = type { %"struct.std::__atomic_base.21" }
%"struct.std::__atomic_base.21" = type { ptr }
%"struct.std::atomic.22" = type { %"struct.std::__atomic_base.23" }
%"struct.std::__atomic_base.23" = type { i64 }
%"struct.google::protobuf::internal::ArenaImpl::Options" = type { i64, i64, ptr, ptr, ptr }

@_ZTIN13sentencepiece11TrainerSpecE = constant { ptr, ptr, ptr } { ptr getelementptr inbounds (ptr, ptr @_ZTVN10__cxxabiv120__si_class_type_infoE, i64 2), ptr @_ZTSN13sentencepiece11TrainerSpecE, ptr @_ZTIN6google8protobuf11MessageLiteE }, align 8
@_ZN13sentencepiece11TrainerSpecC1EPN6google8protobuf5ArenaE = unnamed_addr alias void (ptr, ptr), ptr @_ZN13sentencepiece11TrainerSpecC2EPN6google8protobuf5ArenaE

; Function Attrs: mustprogress uwtable
define linkonce_odr noundef ptr @_ZN6google8protobuf5Arena15AllocateAlignedEm(ptr noundef nonnull align 8 dereferenceable(40) %0, i64 noundef %1) #4 comdat align 2 {
  %3 = alloca ptr, align 8
  %4 = alloca i64, align 8
  store ptr %0, ptr %3, align 8, !tbaa !35
  store i64 %1, ptr %4, align 8, !tbaa !17
  %5 = load ptr, ptr %3, align 8
  %6 = load i64, ptr %4, align 8, !tbaa !17
  %7 = call noundef i64 @_ZN6google8protobuf8internal10AlignUpTo8Em(i64 noundef %6)
  %8 = call noundef ptr @_ZN6google8protobuf5Arena21AllocateAlignedNoHookEm(ptr noundef nonnull align 8 dereferenceable(40) %5, i64 noundef %7)
  ret ptr %8
}

; Function Attrs: inlinehint mustprogress nounwind uwtable
define linkonce_odr noundef zeroext i1 @_ZNK6google8protobuf8internal9ArenaImpl13record_allocsEv(ptr noundef nonnull align 8 dereferenceable(40) %0) #9 comdat align 2 {
  %2 = alloca ptr, align 8
  store ptr %0, ptr %2, align 8, !tbaa !271
  %3 = load ptr, ptr %2, align 8
  %4 = getelementptr inbounds nuw %"class.google::protobuf::internal::ArenaImpl", ptr %3, i32 0, i32 3
  %5 = load i64, ptr %4, align 8, !tbaa !286
  %6 = and i64 %5, 1
  %7 = icmp ne i64 %6, 0
  ret i1 %7
}

; Function Attrs: mustprogress uwtable
define linkonce_odr noundef ptr @_ZN6google8protobuf5Arena17AllocateAlignedToILm8EEEPvm(ptr noundef nonnull align 8 dereferenceable(40) %0, i64 noundef %1) #4 comdat align 2 {
  %3 = alloca ptr, align 8
  %4 = alloca i64, align 8
  store ptr %0, ptr %3, align 8, !tbaa !35
  store i64 %1, ptr %4, align 8, !tbaa !17
  %5 = load ptr, ptr %3, align 8
  %6 = load i64, ptr %4, align 8, !tbaa !17
  %7 = call noundef ptr @_ZN6google8protobuf5Arena15AllocateAlignedEm(ptr noundef nonnull align 8 dereferenceable(40) %5, i64 noundef %6)
  ret ptr %7
}

; Function Attrs: inlinehint mustprogress uwtable
define linkonce_odr void @_ZNK6google8protobuf8internal9ArenaImpl11RecordAllocEPKSt9type_infom(ptr noundef nonnull align 8 dereferenceable(40) %0, ptr noundef %1, i64 noundef %2) #7 comdat align 2 {
  %4 = alloca ptr, align 8
  %5 = alloca ptr, align 8
  %6 = alloca i64, align 8
  store ptr %0, ptr %4, align 8, !tbaa !271
  store ptr %1, ptr %5, align 8, !tbaa !273
  store i64 %2, ptr %6, align 8, !tbaa !17
  %7 = load ptr, ptr %4, align 8
  %8 = call noundef zeroext i1 @_ZNK6google8protobuf8internal9ArenaImpl13record_allocsEv(ptr noundef nonnull align 8 dereferenceable(40) %7)
  %9 = zext i1 %8 to i64
  %10 = call i64 @llvm.expect.i64(i64 %9, i64 0)
  %11 = icmp ne i64 %10, 0
  br i1 %11, label %12, label %22

12:                                               ; preds = %3
  %13 = getelementptr inbounds nuw %"class.google::protobuf::internal::ArenaImpl", ptr %7, i32 0, i32 4
  %14 = load ptr, ptr %13, align 8, !tbaa !275
  %15 = getelementptr inbounds nuw %"struct.google::protobuf::internal::ArenaImpl::Options", ptr %14, i32 0, i32 4
  %16 = load ptr, ptr %15, align 8, !tbaa !283
  %17 = load ptr, ptr %5, align 8, !tbaa !273
  %18 = load i64, ptr %6, align 8, !tbaa !17
  %19 = load ptr, ptr %16, align 8, !tbaa !37
  %20 = getelementptr inbounds ptr, ptr %19, i64 5
  %21 = load ptr, ptr %20, align 8
  call void %21(ptr noundef nonnull align 8 dereferenceable(8) %16, ptr noundef %17, i64 noundef %18)
  br label %22

22:                                               ; preds = %12, %3
  ret void
}

; Function Attrs: inlinehint mustprogress nounwind uwtable
define linkonce_odr noundef i64 @_ZN6google8protobuf8internal10AlignUpTo8Em(i64 noundef %0) #9 comdat {
  %2 = alloca i64, align 8
  store i64 %0, ptr %2, align 8, !tbaa !17
  %3 = load i64, ptr %2, align 8, !tbaa !17
  %4 = add i64 %3, 7
  %5 = and i64 %4, -8
  ret i64 %5
}

; Function Attrs: mustprogress uwtable
define linkonce_odr noundef ptr @_ZN6google8protobuf5Arena14InternalHelperIN13sentencepiece11TrainerSpecEE9ConstructIJPS1_EEEPS4_PvDpOT_(ptr noundef %0, ptr noundef nonnull align 8 dereferenceable(8) %1) #4 comdat align 2 {
  %3 = alloca ptr, align 8
  %4 = alloca ptr, align 8
  store ptr %0, ptr %3, align 8, !tbaa !3
  store ptr %1, ptr %4, align 8, !tbaa !341
  %5 = load ptr, ptr %3, align 8, !tbaa !3
  %6 = load ptr, ptr %4, align 8, !tbaa !341
  %7 = load ptr, ptr %6, align 8, !tbaa !35
  call void @_ZN13sentencepiece11TrainerSpecC1EPN6google8protobuf5ArenaE(ptr noundef nonnull align 8 dereferenceable(336) %5, ptr noundef %7)
  ret ptr %5
}

; Function Attrs: alwaysinline mustprogress uwtable
define linkonce_odr noundef ptr @_ZN6google8protobuf5Arena16AllocateInternalIN13sentencepiece11TrainerSpecEEEPvb(ptr noundef nonnull align 8 dereferenceable(40) %0, i1 noundef zeroext %1) #12 comdat align 2 {
  %3 = alloca ptr, align 8
  %4 = alloca ptr, align 8
  %5 = alloca i8, align 1
  %6 = alloca i64, align 8
  %7 = alloca i32, align 4
  store ptr %0, ptr %4, align 8, !tbaa !35
  %8 = zext i1 %1 to i8
  store i8 %8, ptr %5, align 1, !tbaa !23
  %9 = load ptr, ptr %4, align 8
  call void @llvm.lifetime.start.p0(i64 8, ptr %6) #3
  %10 = call noundef i64 @_ZN6google8protobuf8internal10AlignUpTo8Em(i64 noundef 336)
  store i64 %10, ptr %6, align 8, !tbaa !17
  %11 = getelementptr inbounds nuw %"class.google::protobuf::Arena", ptr %9, i32 0, i32 0
  %12 = load i64, ptr %6, align 8, !tbaa !17
  call void @_ZNK6google8protobuf8internal9ArenaImpl11RecordAllocEPKSt9type_infom(ptr noundef nonnull align 8 dereferenceable(40) %11, ptr noundef @_ZTIN13sentencepiece11TrainerSpecE, i64 noundef %12)
  %13 = load i8, ptr %5, align 1, !tbaa !23, !range !29, !noundef !30
  %14 = trunc i8 %13 to i1
  br i1 %14, label %15, label %17

15:                                               ; preds = %2
  %16 = call noundef ptr @_ZN6google8protobuf5Arena17AllocateAlignedToILm8EEEPvm(ptr noundef nonnull align 8 dereferenceable(40) %9, i64 noundef 336)
  store ptr %16, ptr %3, align 8
  store i32 1, ptr %7, align 4
  br label %21

17:                                               ; preds = %2
  %18 = getelementptr inbounds nuw %"class.google::protobuf::Arena", ptr %9, i32 0, i32 0
  %19 = load i64, ptr %6, align 8, !tbaa !17
  %20 = call noundef ptr @_ZN6google8protobuf8internal9ArenaImpl28AllocateAlignedAndAddCleanupEmPFvPvE(ptr noundef nonnull align 8 dereferenceable(40) %18, i64 noundef %19, ptr noundef @_ZN6google8protobuf8internal21arena_destruct_objectIN13sentencepiece11TrainerSpecEEEvPv)
  store ptr %20, ptr %3, align 8
  store i32 1, ptr %7, align 4
  br label %21

21:                                               ; preds = %17, %15
  call void @llvm.lifetime.end.p0(i64 8, ptr %6) #3
  %22 = load ptr, ptr %3, align 8
  ret ptr %22
}

; Function Attrs: alwaysinline mustprogress uwtable
define linkonce_odr noundef ptr @_ZN6google8protobuf5Arena15DoCreateMessageIN13sentencepiece11TrainerSpecEJEEEPT_DpOT0_(ptr noundef nonnull align 8 dereferenceable(40) %0) #12 comdat align 2 {
  %2 = alloca ptr, align 8
  %3 = alloca ptr, align 8
  store ptr %0, ptr %2, align 8, !tbaa !35
  %4 = load ptr, ptr %2, align 8
  %5 = call noundef ptr @_ZN6google8protobuf5Arena16AllocateInternalIN13sentencepiece11TrainerSpecEEEPvb(ptr noundef nonnull align 8 dereferenceable(40) %4, i1 noundef zeroext true)
  call void @llvm.lifetime.start.p0(i64 8, ptr %3) #3
  store ptr %4, ptr %3, align 8, !tbaa !35
  %6 = call noundef ptr @_ZN6google8protobuf5Arena14InternalHelperIN13sentencepiece11TrainerSpecEE9ConstructIJPS1_EEEPS4_PvDpOT_(ptr noundef %5, ptr noundef nonnull align 8 dereferenceable(8) %3)
  call void @llvm.lifetime.end.p0(i64 8, ptr %3) #3
  ret ptr %6
}

; Function Attrs: inlinehint mustprogress uwtable
define linkonce_odr void @_ZN13sentencepiece11TrainerSpecC2Ev(ptr noundef nonnull align 8 dereferenceable(336) %0) unnamed_addr #7 comdat align 2 {
  %2 = alloca ptr, align 8
  store ptr %0, ptr %2, align 8, !tbaa !33
  %3 = load ptr, ptr %2, align 8
  call void @_ZN13sentencepiece11TrainerSpecC2EPN6google8protobuf5ArenaE(ptr noundef nonnull align 8 dereferenceable(336) %3, ptr noundef null)
  ret void
}

; Function Attrs: alwaysinline mustprogress uwtable
define linkonce_odr noundef ptr @_ZN6google8protobuf5Arena21CreateMessageInternalIN13sentencepiece11TrainerSpecEEEPT_PS1_(ptr noundef %0) #12 comdat align 2 personality ptr @__gxx_personality_v0 {
  %2 = alloca ptr, align 8
  %3 = alloca ptr, align 8
  %4 = alloca ptr, align 8
  %5 = alloca i32, align 4
  store ptr %0, ptr %3, align 8, !tbaa !35
  %6 = load ptr, ptr %3, align 8, !tbaa !35
  %7 = icmp eq ptr %6, null
  br i1 %7, label %8, label %15

8:                                                ; preds = %1
  %9 = call noalias noundef nonnull ptr @_Znwm(i64 noundef 336) #26
  invoke void @_ZN13sentencepiece11TrainerSpecC2Ev(ptr noundef nonnull align 8 dereferenceable(336) %9)
          to label %10 unwind label %11

10:                                               ; preds = %8
  store ptr %9, ptr %2, align 8
  br label %18

11:                                               ; preds = %8
  %12 = landingpad { ptr, i32 }
          cleanup
  %13 = extractvalue { ptr, i32 } %12, 0
  store ptr %13, ptr %4, align 8
  %14 = extractvalue { ptr, i32 } %12, 1
  store i32 %14, ptr %5, align 4
  call void @_ZdlPvm(ptr noundef %9, i64 noundef 336) #23
  br label %20

15:                                               ; preds = %1
  %16 = load ptr, ptr %3, align 8, !tbaa !35
  %17 = call noundef ptr @_ZN6google8protobuf5Arena15DoCreateMessageIN13sentencepiece11TrainerSpecEJEEEPT_DpOT0_(ptr noundef nonnull align 8 dereferenceable(40) %16)
  store ptr %17, ptr %2, align 8
  br label %18

18:                                               ; preds = %15, %10
  %19 = load ptr, ptr %2, align 8
  ret ptr %19

20:                                               ; preds = %11
  %21 = load ptr, ptr %4, align 8
  %22 = load i32, ptr %5, align 4
  %23 = insertvalue { ptr, i32 } poison, ptr %21, 0
  %24 = insertvalue { ptr, i32 } %23, i32 %22, 1
  resume { ptr, i32 } %24
}

; Function Attrs: mustprogress noinline uwtable
define noundef ptr @_ZN6google8protobuf5Arena18CreateMaybeMessageIN13sentencepiece11TrainerSpecEJEEEPT_PS1_DpOT0_(ptr noundef %0) #17 align 2 {
  %2 = alloca ptr, align 8
  store ptr %0, ptr %2, align 8, !tbaa !35
  %3 = load ptr, ptr %2, align 8, !tbaa !35
  %4 = call noundef ptr @_ZN6google8protobuf5Arena21CreateMessageInternalIN13sentencepiece11TrainerSpecEEEPT_PS1_(ptr noundef %3)
  ret ptr %4
}