; Function Attrs: mustprogress noinline uwtable
define noundef ptr @_ZN6google8protobuf5Arena18CreateMaybeMessageIN13sentencepiece11TrainerSpecEJEEEPT_PS1_DpOT0_(ptr noundef %0) local_unnamed_addr #18 align 2 personality ptr @__gxx_personality_v0 {
  %2 = icmp eq ptr %0, null
  br i1 %2, label %3, label %7

3:                                                ; preds = %1
  %4 = tail call noalias noundef nonnull dereferenceable(336) ptr @_Znwm(i64 noundef 336) #29
  invoke void @_ZN13sentencepiece11TrainerSpecC2EPN6google8protobuf5ArenaE(ptr noundef nonnull align 8 dereferenceable(336) %4, ptr noundef null)
          to label %_ZN6google8protobuf5Arena21CreateMessageInternalIN13sentencepiece11TrainerSpecEEEPT_PS1_.exit unwind label %5

5:                                                ; preds = %3
  %6 = landingpad { ptr, i32 }
          cleanup
  tail call void @_ZdlPvm(ptr noundef nonnull %4, i64 noundef 336) #27
  resume { ptr, i32 } %6

7:                                                ; preds = %1
  %8 = getelementptr inbounds nuw i8, ptr %0, i64 24
  %9 = load i64, ptr %8, align 8, !tbaa !90
  %10 = and i64 %9, 1
  %.not.i = icmp eq i64 %10, 0
  br i1 %.not.i, label %_ZNK6google8protobuf8internal9ArenaImpl11RecordAllocEPKSt9type_infom.exit, label %11, !prof !10

11:                                               ; preds = %7
  %12 = getelementptr inbounds nuw i8, ptr %0, i64 32
  %13 = load ptr, ptr %12, align 8, !tbaa !98
  %14 = getelementptr inbounds nuw i8, ptr %13, i64 32
  %15 = load ptr, ptr %14, align 8, !tbaa !99
  %16 = load ptr, ptr %15, align 8, !tbaa !8
  %17 = getelementptr inbounds nuw i8, ptr %16, i64 40
  %18 = load ptr, ptr %17, align 8
  tail call void %18(ptr noundef nonnull align 8 dereferenceable(8) %15, ptr noundef nonnull @_ZTIN13sentencepiece11TrainerSpecE, i64 noundef 336)
  br label %_ZNK6google8protobuf8internal9ArenaImpl11RecordAllocEPKSt9type_infom.exit

_ZNK6google8protobuf8internal9ArenaImpl11RecordAllocEPKSt9type_infom.exit: ; preds = %7, %11
  %19 = tail call noundef ptr @_ZN6google8protobuf5Arena21AllocateAlignedNoHookEm(ptr noundef nonnull align 8 dereferenceable(40) %0, i64 noundef 336)
  tail call void @_ZN13sentencepiece11TrainerSpecC1EPN6google8protobuf5ArenaE(ptr noundef nonnull align 8 dereferenceable(336) %19, ptr noundef nonnull %0)
  br label %_ZN6google8protobuf5Arena21CreateMessageInternalIN13sentencepiece11TrainerSpecEEEPT_PS1_.exit

_ZN6google8protobuf5Arena21CreateMessageInternalIN13sentencepiece11TrainerSpecEEEPT_PS1_.exit: ; preds = %3, %_ZNK6google8protobuf8internal9ArenaImpl11RecordAllocEPKSt9type_infom.exit
  %.0.i = phi ptr [ %19, %_ZNK6google8protobuf8internal9ArenaImpl11RecordAllocEPKSt9type_infom.exit ], [ %4, %3 ]
  ret ptr %.0.i
}